target datalayout = "e-m:e-p270:32:32-p271:32:32-p272:64:64-i64:64-i128:128-f80:128-n8:16:32:64-S128"
target triple = "x86_64-pc-linux-gnu"

@show_progress = internal global i8 0, align 1
@total_size = internal global i64 0, align 8
@progress_report.last_progress_report = internal global i64 0, align 8
@done_size = internal global i64 0, align 8
@.str.64 = private unnamed_addr constant [4 x i8] c"%lu\00", align 1
@stderr = external global ptr, align 8
@.str.65 = private unnamed_addr constant [26 x i8] c"%*s/%s kB (%d%%) verified\00", align 1

; Function Attrs: nounwind uwtable
define internal void @progress_report(i1 noundef zeroext %0) #0 {
  %2 = alloca i8, align 1
  %3 = alloca i64, align 8
  %4 = alloca i32, align 4
  %5 = alloca [32 x i8], align 16
  %6 = alloca [32 x i8], align 16
  %7 = alloca i32, align 4
  %8 = zext i1 %0 to i8
  store i8 %8, ptr %2, align 1
  call void @llvm.lifetime.start.p0(i64 8, ptr %3) #14
  call void @llvm.lifetime.start.p0(i64 4, ptr %4) #14
  store i32 0, ptr %4, align 4
  call void @llvm.lifetime.start.p0(i64 32, ptr %5) #14
  call void @llvm.lifetime.start.p0(i64 32, ptr %6) #14
  %9 = load i8, ptr @show_progress, align 1, !range !6, !noundef !7
  %10 = trunc i8 %9 to i1
  br i1 %10, label %12, label %11

11:                                               ; preds = %1
  store i32 1, ptr %7, align 4
  br label %62

12:                                               ; preds = %1
  %13 = call i64 @time(ptr noundef null) #14
  store i64 %13, ptr %3, align 8
  %14 = load i64, ptr %3, align 8
  %15 = load i64, ptr @progress_report.last_progress_report, align 8
  %16 = icmp eq i64 %14, %15
  br i1 %16, label %17, label %21

17:                                               ; preds = %12
  %18 = load i8, ptr %2, align 1, !range !6, !noundef !7
  %19 = trunc i8 %18 to i1
  br i1 %19, label %21, label %20

20:                                               ; preds = %17
  store i32 1, ptr %7, align 4
  br label %62

21:                                               ; preds = %17, %12
  %22 = load i64, ptr %3, align 8
  store i64 %22, ptr @progress_report.last_progress_report, align 8
  %23 = load i64, ptr @total_size, align 8
  %24 = icmp ne i64 %23, 0
  br i1 %24, label %25, label %31

25:                                               ; preds = %21
  %26 = load i64, ptr @done_size, align 8
  %27 = mul i64 %26, 100
  %28 = load i64, ptr @total_size, align 8
  %29 = udiv i64 %27, %28
  %30 = trunc i64 %29 to i32
  br label %32

31:                                               ; preds = %21
  br label %32

32:                                               ; preds = %31, %25
  %33 = phi i32 [ %30, %25 ], [ 0, %31 ]
  store i32 %33, ptr %4, align 4
  %34 = getelementptr inbounds [32 x i8], ptr %5, i64 0, i64 0
  %35 = load i64, ptr @total_size, align 8
  %36 = udiv i64 %35, 1024
  %37 = call i32 (ptr, i64, ptr, ...) @pg_snprintf(ptr noundef %34, i64 noundef 32, ptr noundef @.str.64, i64 noundef %36)
  %38 = getelementptr inbounds [32 x i8], ptr %6, i64 0, i64 0
  %39 = load i64, ptr @done_size, align 8
  %40 = udiv i64 %39, 1024
  %41 = call i32 (ptr, i64, ptr, ...) @pg_snprintf(ptr noundef %38, i64 noundef 32, ptr noundef @.str.64, i64 noundef %40)
  %42 = load ptr, ptr @stderr, align 8
  %43 = getelementptr inbounds [32 x i8], ptr %5, i64 0, i64 0
  %44 = call i64 @strlen(ptr noundef %43) #15
  %45 = trunc i64 %44 to i32
  %46 = getelementptr inbounds [32 x i8], ptr %6, i64 0, i64 0
  %47 = getelementptr inbounds [32 x i8], ptr %5, i64 0, i64 0
  %48 = load i32, ptr %4, align 4
  %49 = call i32 (ptr, ptr, ...) @pg_fprintf(ptr noundef %42, ptr noundef @.str.65, i32 noundef %45, ptr noundef %46, ptr noundef %47, i32 noundef %48)
  %50 = load i8, ptr %2, align 1, !range !6, !noundef !7
  %51 = trunc i8 %50 to i1
  br i1 %51, label %57, label %52

52:                                               ; preds = %32
  %53 = load ptr, ptr @stderr, align 8
  %54 = call i32 @fileno(ptr noundef %53) #14
  %55 = call i32 @isatty(i32 noundef %54) #14
  %56 = icmp ne i32 %55, 0
  br label %57

57:                                               ; preds = %52, %32
  %58 = phi i1 [ false, %32 ], [ %56, %52 ]
  %59 = select i1 %58, i32 13, i32 10
  %60 = load ptr, ptr @stderr, align 8
  %61 = call i32 @fputc(i32 noundef %59, ptr noundef %60)
  store i32 0, ptr %7, align 4
  br label %62

62:                                               ; preds = %57, %20, %11
  call void @llvm.lifetime.end.p0(i64 32, ptr %6) #14
  call void @llvm.lifetime.end.p0(i64 32, ptr %5) #14
  call void @llvm.lifetime.end.p0(i64 4, ptr %4) #14
  call void @llvm.lifetime.end.p0(i64 8, ptr %3) #14
  %63 = load i32, ptr %7, align 4
  switch i32 %63, label %65 [
    i32 0, label %64
    i32 1, label %64
  ]

64:                                               ; preds = %62, %62
  ret void

65:                                               ; preds = %62
  unreachable
}