; Function Attrs: nounwind uwtable
define internal fastcc void @progress_report(i1 noundef zeroext %0) unnamed_addr #0 {
  %2 = alloca [32 x i8], align 16
  %3 = alloca [32 x i8], align 16
  call void @llvm.lifetime.start.p0(i64 32, ptr nonnull %2) #21
  call void @llvm.lifetime.start.p0(i64 32, ptr nonnull %3) #21
  %.b5 = load i1, ptr @show_progress, align 1
  br i1 %.b5, label %4, label %35

4:                                                ; preds = %1
  %5 = tail call i64 @time(ptr noundef null) #21
  %6 = load i64, ptr @progress_report.last_progress_report, align 8
  %7 = icmp ne i64 %5, %6
  %brmerge = or i1 %0, %7
  br i1 %brmerge, label %8, label %35

8:                                                ; preds = %4
  store i64 %5, ptr @progress_report.last_progress_report, align 8
  %9 = load i64, ptr @total_size, align 8
  %.not = icmp eq i64 %9, 0
  br i1 %.not, label %15, label %10

10:                                               ; preds = %8
  %11 = load i64, ptr @done_size, align 8
  %12 = mul i64 %11, 100
  %13 = udiv i64 %12, %9
  %14 = trunc i64 %13 to i32
  br label %15

15:                                               ; preds = %8, %10
  %16 = phi i32 [ %14, %10 ], [ 0, %8 ]
  %17 = lshr i64 %9, 10
  %18 = call i32 (ptr, i64, ptr, ...) @pg_snprintf(ptr noundef nonnull %2, i64 noundef 32, ptr noundef nonnull @.str.64, i64 noundef %17) #21
  %19 = load i64, ptr @done_size, align 8
  %20 = lshr i64 %19, 10
  %21 = call i32 (ptr, i64, ptr, ...) @pg_snprintf(ptr noundef nonnull %3, i64 noundef 32, ptr noundef nonnull @.str.64, i64 noundef %20) #21
  %22 = load ptr, ptr @stderr, align 8
  %23 = call i64 @strlen(ptr noundef nonnull dereferenceable(1) %2) #22
  %24 = trunc i64 %23 to i32
  %25 = call i32 (ptr, ptr, ...) @pg_fprintf(ptr noundef %22, ptr noundef nonnull @.str.65, i32 noundef %24, ptr noundef nonnull %3, ptr noundef nonnull %2, i32 noundef %16) #21
  br i1 %0, label %31, label %26

26:                                               ; preds = %15
  %27 = load ptr, ptr @stderr, align 8
  %28 = call i32 @fileno(ptr noundef %27) #21
  %29 = call i32 @isatty(i32 noundef %28) #21
  %.not6 = icmp eq i32 %29, 0
  %30 = select i1 %.not6, i32 10, i32 13
  br label %31

31:                                               ; preds = %26, %15
  %32 = phi i32 [ 10, %15 ], [ %30, %26 ]
  %33 = load ptr, ptr @stderr, align 8
  %34 = call i32 @fputc(i32 noundef %32, ptr noundef %33)
  br label %35

35:                                               ; preds = %4, %1, %31
  call void @llvm.lifetime.end.p0(i64 32, ptr nonnull %3) #21
  call void @llvm.lifetime.end.p0(i64 32, ptr nonnull %2) #21
  ret void
}